; ModuleID = 'source-C-CXX/23/2050.c'
source_filename = "source-C-CXX/23/2050.c"
target datalayout = "e-m:e-p270:32:32-p271:32:32-p272:64:64-i64:64-f80:128-n8:16:32:64-S128"
target triple = "x86_64-pc-linux-gnu"

@.str = private unnamed_addr constant [6 x i8] c"%s\0A%s\00", align 1

; Function Attrs: nounwind sspstrong uwtable
define dso_local i32 @main() local_unnamed_addr #0 {
  %1 = alloca [5000 x i8], align 16
  %2 = alloca [20 x i8], align 16
  %3 = alloca [20 x i8], align 16
  %4 = alloca [20 x i8], align 16
  %5 = getelementptr inbounds [5000 x i8], [5000 x i8]* %1, i64 0, i64 0
  call void @llvm.lifetime.start.p0i8(i64 5000, i8* nonnull %5) #6
  %6 = call i32 (i8*, ...) bitcast (i32 (...)* @gets to i32 (i8*, ...)*)(i8* nonnull %5) #6
  %7 = getelementptr inbounds [20 x i8], [20 x i8]* %2, i64 0, i64 0
  call void @llvm.lifetime.start.p0i8(i64 20, i8* nonnull %7) #6
  %8 = getelementptr inbounds [20 x i8], [20 x i8]* %3, i64 0, i64 0
  call void @llvm.lifetime.start.p0i8(i64 20, i8* nonnull %8) #6
  %9 = getelementptr inbounds [20 x i8], [20 x i8]* %4, i64 0, i64 0
  call void @llvm.lifetime.start.p0i8(i64 20, i8* nonnull %9) #6
  %10 = call i64 @strlen(i8* noundef nonnull %5) #7
  %11 = trunc i64 %10 to i32
  %12 = icmp slt i32 %11, 0
  br i1 %12, label %48, label %13

13:                                               ; preds = %0, %45
  %14 = phi i32 [ %46, %45 ], [ 0, %0 ]
  %15 = icmp eq i32 %14, 0
  %16 = sext i32 %14 to i64
  br label %17

17:                                               ; preds = %21, %13
  %18 = phi i64 [ %24, %21 ], [ %16, %13 ]
  %19 = getelementptr inbounds [5000 x i8], [5000 x i8]* %1, i64 0, i64 %18
  %20 = load i8, i8* %19, align 1, !tbaa !5
  switch i8 %20, label %21 [
    i8 44, label %25
    i8 32, label %25
    i8 0, label %25
  ]

21:                                               ; preds = %17
  %22 = sub nsw i64 %18, %16
  %23 = getelementptr inbounds [20 x i8], [20 x i8]* %2, i64 0, i64 %22
  store i8 %20, i8* %23, align 1, !tbaa !5
  %24 = add i64 %18, 1
  br label %17

25:                                               ; preds = %17, %17, %17
  %26 = trunc i64 %18 to i32
  %27 = sub nsw i32 %26, %14
  %28 = sext i32 %27 to i64
  %29 = getelementptr inbounds [20 x i8], [20 x i8]* %2, i64 0, i64 %28
  store i8 0, i8* %29, align 1, !tbaa !5
  br i1 %15, label %30, label %32

30:                                               ; preds = %25
  %31 = call i8* @strcpy(i8* noundef nonnull %8, i8* noundef nonnull %7) #6
  br label %43

32:                                               ; preds = %25
  %33 = call i64 @strlen(i8* noundef nonnull %7) #7
  %34 = call i64 @strlen(i8* noundef nonnull %8) #7
  %35 = icmp ugt i64 %33, %34
  br i1 %35, label %36, label %38

36:                                               ; preds = %32
  %37 = call i8* @strcpy(i8* noundef nonnull %8, i8* noundef nonnull %7) #6
  br label %38

38:                                               ; preds = %36, %32
  %39 = call i64 @strlen(i8* noundef nonnull %9) #7
  %40 = icmp uge i64 %33, %39
  %41 = icmp eq i64 %33, 0
  %42 = or i1 %41, %40
  br i1 %42, label %45, label %43

43:                                               ; preds = %38, %30
  %44 = call i8* @strcpy(i8* noundef nonnull %9, i8* noundef nonnull %7) #6
  br label %45

45:                                               ; preds = %43, %38
  %46 = add nsw i32 %26, 1
  %47 = icmp slt i32 %26, %11
  br i1 %47, label %13, label %48, !llvm.loop !8

48:                                               ; preds = %45, %0
  %49 = call i32 (i8*, ...) @printf(i8* nonnull dereferenceable(1) getelementptr inbounds ([6 x i8], [6 x i8]* @.str, i64 0, i64 0), i8* nonnull %8, i8* nonnull %9)
  call void @llvm.lifetime.end.p0i8(i64 20, i8* nonnull %9) #6
  call void @llvm.lifetime.end.p0i8(i64 20, i8* nonnull %8) #6
  call void @llvm.lifetime.end.p0i8(i64 20, i8* nonnull %7) #6
  call void @llvm.lifetime.end.p0i8(i64 5000, i8* nonnull %5) #6
  ret i32 0
}

; Function Attrs: argmemonly mustprogress nofree nosync nounwind willreturn
declare void @llvm.lifetime.start.p0i8(i64 immarg, i8* nocapture) #1

declare i32 @gets(...) local_unnamed_addr #2

; Function Attrs: argmemonly mustprogress nofree nounwind readonly willreturn
declare i64 @strlen(i8* nocapture) local_unnamed_addr #3

; Function Attrs: argmemonly mustprogress nofree nounwind willreturn
declare i8* @strcpy(i8* noalias returned writeonly, i8* noalias nocapture readonly) local_unnamed_addr #4

; Function Attrs: nofree nounwind
declare noundef i32 @printf(i8* nocapture noundef readonly, ...) local_unnamed_addr #5

; Function Attrs: argmemonly mustprogress nofree nosync nounwind willreturn
declare void @llvm.lifetime.end.p0i8(i64 immarg, i8* nocapture) #1


!llvm.module.flags = !{!0, !1, !2, !3}
!llvm.ident = !{!4}

!0 = !{i32 1, !"wchar_size", i32 4}
!1 = !{i32 7, !"PIC Level", i32 2}
!2 = !{i32 7, !"PIE Level", i32 2}
!3 = !{i32 7, !"uwtable", i32 1}
!4 = !{!"clang version 13.0.0"}
!5 = !{!6, !6, i64 0}
!6 = !{!"omnipotent char", !7, i64 0}
!7 = !{!"Simple C/C++ TBAA"}
!8 = distinct !{!8, !9}
!9 = !{!"llvm.loop.mustprogress"}
